target datalayout = "e-m:e-p270:32:32-p271:32:32-p272:64:64-i64:64-i128:128-f80:128-n8:16:32:64-S128"
target triple = "x86_64-pc-linux-gnu"

%"class.doctest::String" = type { %union.anon.7 }
%union.anon.7 = type { %"struct.doctest::String::view", [8 x i8] }
%"struct.doctest::String::view" = type { ptr, i32, i32 }
%"class.doctest::Contains" = type { %"class.doctest::String" }
%"struct.doctest::detail::Result" = type { i8, %"class.doctest::String" }
%"struct.doctest::AssertData" = type { ptr, i32, ptr, i32, ptr, i8, i8, %"class.doctest::String", %"class.doctest::String", i8, ptr, %"class.doctest::AssertData::StringContains" }
%"class.doctest::AssertData::StringContains" = type <{ %"class.doctest::Contains", i8, [7 x i8] }>

; Function Attrs: mustprogress nounwind uwtable
define dso_local void @_ZN7doctest6String9setOnHeapEv(ptr noundef nonnull align 8 dereferenceable(24) %0) #1 align 2 {
  %2 = alloca ptr, align 8
  store ptr %0, ptr %2, align 8, !tbaa !59
  %3 = load ptr, ptr %2, align 8
  %4 = getelementptr inbounds nuw %"class.doctest::String", ptr %3, i32 0, i32 0
  %5 = getelementptr inbounds nuw [24 x i8], ptr %4, i64 0, i64 23
  store i8 -128, ptr %5, align 1, !tbaa !55
  ret void
}

; Function Attrs: mustprogress nounwind uwtable
define dso_local void @_ZN7doctest6String7setLastEj(ptr noundef nonnull align 8 dereferenceable(24) %0, i32 noundef %1) #1 align 2 {
  %3 = alloca ptr, align 8
  %4 = alloca i32, align 4
  store ptr %0, ptr %3, align 8, !tbaa !59
  store i32 %1, ptr %4, align 4, !tbaa !4
  %5 = load ptr, ptr %3, align 8
  %6 = load i32, ptr %4, align 4, !tbaa !4
  %7 = trunc i32 %6 to i8
  %8 = getelementptr inbounds nuw %"class.doctest::String", ptr %5, i32 0, i32 0
  %9 = getelementptr inbounds nuw [24 x i8], ptr %8, i64 0, i64 23
  store i8 %7, ptr %9, align 1, !tbaa !55
  ret void
}

; Function Attrs: mustprogress uwtable
define dso_local noundef ptr @_ZN7doctest6String8allocateEj(ptr noundef nonnull align 8 dereferenceable(24) %0, i32 noundef %1) #8 align 2 {
  %3 = alloca ptr, align 8
  %4 = alloca ptr, align 8
  %5 = alloca i32, align 4
  store ptr %0, ptr %4, align 8, !tbaa !59
  store i32 %1, ptr %5, align 4, !tbaa !4
  %6 = load ptr, ptr %4, align 8
  %7 = load i32, ptr %5, align 4, !tbaa !4
  %8 = icmp ule i32 %7, 23
  br i1 %8, label %9, label %18

9:                                                ; preds = %2
  %10 = getelementptr inbounds nuw %"class.doctest::String", ptr %6, i32 0, i32 0
  %11 = load i32, ptr %5, align 4, !tbaa !4
  %12 = zext i32 %11 to i64
  %13 = getelementptr inbounds nuw [24 x i8], ptr %10, i64 0, i64 %12
  store i8 0, ptr %13, align 1, !tbaa !55
  %14 = load i32, ptr %5, align 4, !tbaa !4
  %15 = sub i32 23, %14
  call void @_ZN7doctest6String7setLastEj(ptr noundef nonnull align 8 dereferenceable(24) %6, i32 noundef %15) #7
  %16 = getelementptr inbounds nuw %"class.doctest::String", ptr %6, i32 0, i32 0
  %17 = getelementptr inbounds [24 x i8], ptr %16, i64 0, i64 0
  store ptr %17, ptr %3, align 8
  br label %44

18:                                               ; preds = %2
  call void @_ZN7doctest6String9setOnHeapEv(ptr noundef nonnull align 8 dereferenceable(24) %6) #7
  %19 = load i32, ptr %5, align 4, !tbaa !4
  %20 = getelementptr inbounds nuw %"class.doctest::String", ptr %6, i32 0, i32 0
  %21 = getelementptr inbounds nuw %"struct.doctest::String::view", ptr %20, i32 0, i32 1
  store i32 %19, ptr %21, align 8, !tbaa !55
  %22 = getelementptr inbounds nuw %"class.doctest::String", ptr %6, i32 0, i32 0
  %23 = getelementptr inbounds nuw %"struct.doctest::String::view", ptr %22, i32 0, i32 1
  %24 = load i32, ptr %23, align 8, !tbaa !55
  %25 = add i32 %24, 1
  %26 = getelementptr inbounds nuw %"class.doctest::String", ptr %6, i32 0, i32 0
  %27 = getelementptr inbounds nuw %"struct.doctest::String::view", ptr %26, i32 0, i32 2
  store i32 %25, ptr %27, align 4, !tbaa !55
  %28 = getelementptr inbounds nuw %"class.doctest::String", ptr %6, i32 0, i32 0
  %29 = getelementptr inbounds nuw %"struct.doctest::String::view", ptr %28, i32 0, i32 2
  %30 = load i32, ptr %29, align 4, !tbaa !55
  %31 = zext i32 %30 to i64
  %32 = call noalias noundef nonnull ptr @_Znam(i64 noundef %31) #30
  %33 = getelementptr inbounds nuw %"class.doctest::String", ptr %6, i32 0, i32 0
  %34 = getelementptr inbounds nuw %"struct.doctest::String::view", ptr %33, i32 0, i32 0
  store ptr %32, ptr %34, align 8, !tbaa !55
  %35 = getelementptr inbounds nuw %"class.doctest::String", ptr %6, i32 0, i32 0
  %36 = getelementptr inbounds nuw %"struct.doctest::String::view", ptr %35, i32 0, i32 0
  %37 = load ptr, ptr %36, align 8, !tbaa !55
  %38 = load i32, ptr %5, align 4, !tbaa !4
  %39 = zext i32 %38 to i64
  %40 = getelementptr inbounds nuw i8, ptr %37, i64 %39
  store i8 0, ptr %40, align 1, !tbaa !55
  %41 = getelementptr inbounds nuw %"class.doctest::String", ptr %6, i32 0, i32 0
  %42 = getelementptr inbounds nuw %"struct.doctest::String::view", ptr %41, i32 0, i32 0
  %43 = load ptr, ptr %42, align 8, !tbaa !55
  store ptr %43, ptr %3, align 8
  br label %44

44:                                               ; preds = %18, %9
  %45 = load ptr, ptr %3, align 8
  ret ptr %45
}

; Function Attrs: mustprogress uwtable
define dso_local void @_ZN7doctest6String4copyERKS0_(ptr noundef nonnull align 8 dereferenceable(24) %0, ptr noundef nonnull align 8 dereferenceable(24) %1) #8 align 2 {
  %3 = alloca ptr, align 8
  %4 = alloca ptr, align 8
  store ptr %0, ptr %3, align 8, !tbaa !59
  store ptr %1, ptr %4, align 8, !tbaa !59
  %5 = load ptr, ptr %3, align 8
  %6 = load ptr, ptr %4, align 8, !tbaa !59
  %7 = call noundef zeroext i1 @_ZNK7doctest6String9isOnStackEv(ptr noundef nonnull align 8 dereferenceable(24) %6) #7
  br i1 %7, label %8, label %14

8:                                                ; preds = %2
  %9 = getelementptr inbounds nuw %"class.doctest::String", ptr %5, i32 0, i32 0
  %10 = getelementptr inbounds [24 x i8], ptr %9, i64 0, i64 0
  %11 = load ptr, ptr %4, align 8, !tbaa !59
  %12 = getelementptr inbounds nuw %"class.doctest::String", ptr %11, i32 0, i32 0
  %13 = getelementptr inbounds [24 x i8], ptr %12, i64 0, i64 0
  call void @llvm.memcpy.p0.p0.i64(ptr align 8 %10, ptr align 8 %13, i64 24, i1 false)
  br label %29

14:                                               ; preds = %2
  %15 = load ptr, ptr %4, align 8, !tbaa !59
  %16 = getelementptr inbounds nuw %"class.doctest::String", ptr %15, i32 0, i32 0
  %17 = getelementptr inbounds nuw %"struct.doctest::String::view", ptr %16, i32 0, i32 1
  %18 = load i32, ptr %17, align 8, !tbaa !55
  %19 = call noundef ptr @_ZN7doctest6String8allocateEj(ptr noundef nonnull align 8 dereferenceable(24) %5, i32 noundef %18)
  %20 = load ptr, ptr %4, align 8, !tbaa !59
  %21 = getelementptr inbounds nuw %"class.doctest::String", ptr %20, i32 0, i32 0
  %22 = getelementptr inbounds nuw %"struct.doctest::String::view", ptr %21, i32 0, i32 0
  %23 = load ptr, ptr %22, align 8, !tbaa !55
  %24 = load ptr, ptr %4, align 8, !tbaa !59
  %25 = getelementptr inbounds nuw %"class.doctest::String", ptr %24, i32 0, i32 0
  %26 = getelementptr inbounds nuw %"struct.doctest::String::view", ptr %25, i32 0, i32 1
  %27 = load i32, ptr %26, align 8, !tbaa !55
  %28 = zext i32 %27 to i64
  call void @llvm.memcpy.p0.p0.i64(ptr align 1 %19, ptr align 1 %23, i64 %28, i1 false)
  br label %29

29:                                               ; preds = %14, %8
  ret void
}

; Function Attrs: mustprogress nounwind uwtable
define linkonce_odr dso_local noundef zeroext i1 @_ZNK7doctest6String9isOnStackEv(ptr noundef nonnull align 8 dereferenceable(24) %0) #1 comdat align 2 {
  %2 = alloca ptr, align 8
  store ptr %0, ptr %2, align 8, !tbaa !59
  %3 = load ptr, ptr %2, align 8
  %4 = getelementptr inbounds nuw %"class.doctest::String", ptr %3, i32 0, i32 0
  %5 = getelementptr inbounds nuw [24 x i8], ptr %4, i64 0, i64 23
  %6 = load i8, ptr %5, align 1, !tbaa !55
  %7 = sext i8 %6 to i32
  %8 = and i32 %7, 128
  %9 = icmp eq i32 %8, 0
  ret i1 %9
}

; Function Attrs: mustprogress uwtable
define dso_local noundef nonnull align 8 dereferenceable(24) ptr @_ZN7doctest6StringaSERKS0_(ptr noundef nonnull align 8 dereferenceable(24) %0, ptr noundef nonnull align 8 dereferenceable(24) %1) #8 align 2 {
  %3 = alloca ptr, align 8
  %4 = alloca ptr, align 8
  store ptr %0, ptr %3, align 8, !tbaa !59
  store ptr %1, ptr %4, align 8, !tbaa !59
  %5 = load ptr, ptr %3, align 8
  %6 = load ptr, ptr %4, align 8, !tbaa !59
  %7 = icmp ne ptr %5, %6
  br i1 %7, label %8, label %19

8:                                                ; preds = %2
  %9 = call noundef zeroext i1 @_ZNK7doctest6String9isOnStackEv(ptr noundef nonnull align 8 dereferenceable(24) %5) #7
  br i1 %9, label %17, label %10

10:                                               ; preds = %8
  %11 = getelementptr inbounds nuw %"class.doctest::String", ptr %5, i32 0, i32 0
  %12 = getelementptr inbounds nuw %"struct.doctest::String::view", ptr %11, i32 0, i32 0
  %13 = load ptr, ptr %12, align 8, !tbaa !55
  %14 = icmp eq ptr %13, null
  br i1 %14, label %16, label %15

15:                                               ; preds = %10
  call void @_ZdaPv(ptr noundef %13) #31
  br label %16

16:                                               ; preds = %15, %10
  br label %17

17:                                               ; preds = %16, %8
  %18 = load ptr, ptr %4, align 8, !tbaa !59
  call void @_ZN7doctest6String4copyERKS0_(ptr noundef nonnull align 8 dereferenceable(24) %5, ptr noundef nonnull align 8 dereferenceable(24) %18)
  br label %19

19:                                               ; preds = %17, %2
  ret ptr %5
}

; Function Attrs: mustprogress uwtable
define dso_local void @_ZN7doctest6detail13ResultBuilder9setResultERKNS0_6ResultE(ptr noundef nonnull align 8 dereferenceable(144) %0, ptr noundef nonnull align 8 dereferenceable(32) %1) #8 align 2 {
  %3 = alloca ptr, align 8
  %4 = alloca ptr, align 8
  store ptr %0, ptr %3, align 8, !tbaa !286
  store ptr %1, ptr %4, align 8, !tbaa !197
  %5 = load ptr, ptr %3, align 8
  %6 = load ptr, ptr %4, align 8, !tbaa !197
  %7 = getelementptr inbounds nuw %"struct.doctest::detail::Result", ptr %6, i32 0, i32 1
  %8 = getelementptr inbounds nuw %"struct.doctest::AssertData", ptr %5, i32 0, i32 8
  %9 = call noundef nonnull align 8 dereferenceable(24) ptr @_ZN7doctest6StringaSERKS0_(ptr noundef nonnull align 8 dereferenceable(24) %8, ptr noundef nonnull align 8 dereferenceable(24) %7)
  %10 = load ptr, ptr %4, align 8, !tbaa !197
  %11 = getelementptr inbounds nuw %"struct.doctest::detail::Result", ptr %10, i32 0, i32 0
  %12 = load i8, ptr %11, align 8, !tbaa !199, !range !36, !noundef !37
  %13 = trunc i8 %12 to i1
  %14 = xor i1 %13, true
  %15 = getelementptr inbounds nuw %"struct.doctest::AssertData", ptr %5, i32 0, i32 5
  %16 = zext i1 %14 to i8
  store i8 %16, ptr %15, align 8, !tbaa !281
  ret void
}