; Function Attrs: mustprogress uwtable
define dso_local void @_ZN7doctest6detail13ResultBuilder9setResultERKNS0_6ResultE(ptr noundef nonnull align 8 dereferenceable(144) %0, ptr noundef nonnull readonly align 8 dereferenceable(32) %1) local_unnamed_addr #8 align 2 {
  %3 = getelementptr inbounds nuw i8, ptr %1, i64 8
  %4 = getelementptr inbounds nuw i8, ptr %0, i64 72
  %.not.i = icmp eq ptr %4, %3
  br i1 %.not.i, label %_ZN7doctest6StringaSERKS0_.exit, label %5

5:                                                ; preds = %2
  %6 = getelementptr inbounds nuw i8, ptr %0, i64 95
  %7 = load i8, ptr %6, align 1, !tbaa !38
  %8 = icmp sgt i8 %7, -1
  br i1 %8, label %13, label %9

9:                                                ; preds = %5
  %10 = load ptr, ptr %4, align 8, !tbaa !38
  %11 = icmp eq ptr %10, null
  br i1 %11, label %13, label %12

12:                                               ; preds = %9
  tail call void @_ZdaPv(ptr noundef nonnull %10) #48
  br label %13

13:                                               ; preds = %12, %9, %5
  %14 = getelementptr inbounds nuw i8, ptr %1, i64 31
  %15 = load i8, ptr %14, align 1, !tbaa !38
  %16 = icmp sgt i8 %15, -1
  br i1 %16, label %17, label %18

17:                                               ; preds = %13
  tail call void @llvm.memcpy.p0.p0.i64(ptr noundef nonnull align 8 dereferenceable(24) %4, ptr noundef nonnull readonly align 8 dereferenceable(24) %3, i64 24, i1 false)
  br label %_ZN7doctest6StringaSERKS0_.exit

18:                                               ; preds = %13
  %19 = getelementptr inbounds nuw i8, ptr %1, i64 16
  %20 = load i32, ptr %19, align 8, !tbaa !38
  %21 = icmp ult i32 %20, 24
  br i1 %21, label %22, label %27

22:                                               ; preds = %18
  %23 = zext nneg i32 %20 to i64
  %24 = getelementptr inbounds nuw [24 x i8], ptr %4, i64 0, i64 %23
  store i8 0, ptr %24, align 1, !tbaa !38
  %25 = trunc nuw i32 %20 to i8
  %26 = sub nuw nsw i8 23, %25
  store i8 %26, ptr %6, align 1, !tbaa !38
  br label %_ZN7doctest6String8allocateEj.exit.i.i

27:                                               ; preds = %18
  store i8 -128, ptr %6, align 1, !tbaa !38
  %28 = getelementptr inbounds nuw i8, ptr %0, i64 80
  store i32 %20, ptr %28, align 8, !tbaa !38
  %29 = add i32 %20, 1
  %30 = getelementptr inbounds nuw i8, ptr %0, i64 84
  store i32 %29, ptr %30, align 4, !tbaa !38
  %31 = zext i32 %29 to i64
  %32 = tail call noalias noundef nonnull ptr @_Znam(i64 noundef %31) #51
  store ptr %32, ptr %4, align 8, !tbaa !38
  %33 = zext i32 %20 to i64
  %34 = getelementptr inbounds nuw i8, ptr %32, i64 %33
  store i8 0, ptr %34, align 1, !tbaa !38
  br label %_ZN7doctest6String8allocateEj.exit.i.i

_ZN7doctest6String8allocateEj.exit.i.i:           ; preds = %27, %22
  %.0.i.i.i = phi ptr [ %4, %22 ], [ %32, %27 ]
  %35 = load ptr, ptr %3, align 8, !tbaa !38
  %36 = load i32, ptr %19, align 8, !tbaa !38
  %37 = zext i32 %36 to i64
  tail call void @llvm.memcpy.p0.p0.i64(ptr nonnull align 1 %.0.i.i.i, ptr align 1 %35, i64 %37, i1 false)
  br label %_ZN7doctest6StringaSERKS0_.exit

_ZN7doctest6StringaSERKS0_.exit:                  ; preds = %2, %17, %_ZN7doctest6String8allocateEj.exit.i.i
  %38 = load i8, ptr %1, align 8, !tbaa !199, !range !22, !noundef !23
  %39 = xor i8 %38, 1
  %40 = getelementptr inbounds nuw i8, ptr %0, i64 40
  store i8 %39, ptr %40, align 8, !tbaa !302
  ret void
}